target datalayout = "e-m:e-p270:32:32-p271:32:32-p272:64:64-i64:64-i128:128-f80:128-n8:16:32:64-S128"
target triple = "x86_64-pc-linux-gnu"

%"class.vcg::Point3" = type { [3 x float] }
%"class.vcg::Transform" = type { %"class.vcg::Similarityf", %"class.vcg::Point3", float }
%"class.vcg::Similarityf" = type { %"class.vcg::Similarity" }
%"class.vcg::Similarity" = type { %"class.vcg::Quaternion", %"class.vcg::Point3", float }
%"class.vcg::Quaternion" = type { %"class.vcg::Point4" }
%"class.vcg::Point4" = type { [4 x float] }
%"class.vcg::Trackball" = type <{ %"class.vcg::Transform", %"class.vcg::View", i32, ptr, ptr, ptr, %"class.std::map", %"class.vcg::Similarityf", %"class.vcg::Similarityf", %"class.vcg::Similarityf", %"class.vcg::Point3", [4 x i8], %"class.std::vector", i8, [3 x i8], i32, i32, %"class.vcg::Quaternion", i8, i8, [2 x i8], %"class.std::__cxx11::list", i32, i8, [3 x i8] }>
%"class.vcg::View" = type <{ %"class.vcg::Matrix44", %"class.vcg::Matrix44", %"class.vcg::Matrix44", %"class.vcg::Matrix44", [4 x i32], i8, [3 x i8] }>
%"class.vcg::Matrix44" = type { %"struct.std::array" }
%"struct.std::array" = type { [16 x float] }
%"class.std::map" = type { %"class.std::_Rb_tree" }
%"class.std::_Rb_tree" = type { %"struct.std::_Rb_tree<int, std::pair<const int, vcg::TrackMode *>, std::_Select1st<std::pair<const int, vcg::TrackMode *>>, std::less<int>>::_Rb_tree_impl" }
%"struct.std::_Rb_tree<int, std::pair<const int, vcg::TrackMode *>, std::_Select1st<std::pair<const int, vcg::TrackMode *>>, std::less<int>>::_Rb_tree_impl" = type { %"struct.std::_Rb_tree_key_compare", %"struct.std::_Rb_tree_header" }
%"struct.std::_Rb_tree_key_compare" = type { %"struct.std::less" }
%"struct.std::less" = type { i8 }
%"struct.std::_Rb_tree_header" = type { %"struct.std::_Rb_tree_node_base", i64 }
%"struct.std::_Rb_tree_node_base" = type { i32, ptr, ptr, ptr }
%"class.std::vector" = type { %"struct.std::_Vector_base" }
%"struct.std::_Vector_base" = type { %"struct.std::_Vector_base<vcg::Point3<float>, std::allocator<vcg::Point3<float>>>::_Vector_impl" }
%"struct.std::_Vector_base<vcg::Point3<float>, std::allocator<vcg::Point3<float>>>::_Vector_impl" = type { %"struct.std::_Vector_base<vcg::Point3<float>, std::allocator<vcg::Point3<float>>>::_Vector_impl_data" }
%"struct.std::_Vector_base<vcg::Point3<float>, std::allocator<vcg::Point3<float>>>::_Vector_impl_data" = type { ptr, ptr, ptr }
%"class.std::__cxx11::list" = type { %"class.std::__cxx11::_List_base" }
%"class.std::__cxx11::_List_base" = type { %"struct.std::__cxx11::_List_base<vcg::Transform, std::allocator<vcg::Transform>>::_List_impl" }
%"struct.std::__cxx11::_List_base<vcg::Transform, std::allocator<vcg::Transform>>::_List_impl" = type { %"struct.std::__detail::_List_node_header" }
%"struct.std::__detail::_List_node_header" = type { %"struct.std::__detail::_List_node_base", i64 }
%"struct.std::__detail::_List_node_base" = type { ptr, ptr }

; Function Attrs: mustprogress uwtable
define void @_ZN3vcg9Trackball7AnimateEj(ptr noundef nonnull align 8 dereferenceable(597) %0, i32 noundef %1) #5 align 2 {
  %3 = alloca ptr, align 8
  %4 = alloca i32, align 4
  %5 = alloca i32, align 4
  store ptr %0, ptr %3, align 8
  store i32 %1, ptr %4, align 4
  %6 = load ptr, ptr %3, align 8
  %7 = getelementptr inbounds %"class.vcg::Trackball", ptr %6, i32 0, i32 23
  %8 = load i8, ptr %7, align 4
  %9 = trunc i8 %8 to i1
  br i1 %9, label %10, label %12

10:                                               ; preds = %2
  %11 = load i32, ptr %4, align 4
  store i32 %11, ptr %5, align 4
  br label %27

12:                                               ; preds = %2
  %13 = load i32, ptr %4, align 4
  %14 = icmp eq i32 %13, 0
  br i1 %14, label %15, label %20

15:                                               ; preds = %12
  %16 = call i64 @clock() #3
  %17 = mul nsw i64 %16, 1000
  %18 = sdiv i64 %17, 1000000
  %19 = trunc i64 %18 to i32
  store i32 %19, ptr %4, align 4
  br label %20

20:                                               ; preds = %15, %12
  %21 = load i32, ptr %4, align 4
  %22 = getelementptr inbounds %"class.vcg::Trackball", ptr %6, i32 0, i32 16
  %23 = load i32, ptr %22, align 8
  %24 = sub i32 %21, %23
  store i32 %24, ptr %5, align 4
  %25 = load i32, ptr %4, align 4
  %26 = getelementptr inbounds %"class.vcg::Trackball", ptr %6, i32 0, i32 16
  store i32 %25, ptr %26, align 8
  br label %27

27:                                               ; preds = %20, %10
  %28 = getelementptr inbounds %"class.vcg::Trackball", ptr %6, i32 0, i32 5
  %29 = load ptr, ptr %28, align 8
  %30 = icmp eq ptr %29, null
  br i1 %30, label %31, label %32

31:                                               ; preds = %27
  br label %39

32:                                               ; preds = %27
  %33 = getelementptr inbounds %"class.vcg::Trackball", ptr %6, i32 0, i32 5
  %34 = load ptr, ptr %33, align 8
  %35 = load i32, ptr %5, align 4
  %36 = load ptr, ptr %34, align 8
  %37 = getelementptr inbounds ptr, ptr %36, i64 11
  %38 = load ptr, ptr %37, align 8
  call void %38(ptr noundef nonnull align 8 dereferenceable(8) %34, i32 noundef %35, ptr noundef %6)
  br label %39

39:                                               ; preds = %32, %31
  ret void
}

; Function Attrs: mustprogress uwtable
define void @_ZN3vcg9Trackball4SyncEj(ptr noundef nonnull align 8 dereferenceable(597) %0, i32 noundef %1) #5 align 2 {
  %3 = alloca ptr, align 8
  %4 = alloca i32, align 4
  store ptr %0, ptr %3, align 8
  store i32 %1, ptr %4, align 4
  %5 = load ptr, ptr %3, align 8
  %6 = getelementptr inbounds %"class.vcg::Trackball", ptr %5, i32 0, i32 23
  %7 = load i8, ptr %6, align 4
  %8 = trunc i8 %7 to i1
  br i1 %8, label %11, label %9

9:                                                ; preds = %2
  %10 = load i32, ptr %4, align 4
  call void @_ZN3vcg9Trackball7AnimateEj(ptr noundef nonnull align 8 dereferenceable(597) %5, i32 noundef %10)
  br label %11

11:                                               ; preds = %9, %2
  ret void
}