; Function Attrs: mustprogress uwtable
define void @_ZN3vcg9Trackball4SyncEj(ptr noundef nonnull align 8 dereferenceable(597) %0, i32 noundef %1) local_unnamed_addr #6 align 2 {
  %3 = getelementptr inbounds i8, ptr %0, i64 596
  %4 = load i8, ptr %3, align 4
  %5 = and i8 %4, 1
  %.not = icmp eq i8 %5, 0
  br i1 %.not, label %6, label %_ZN3vcg9Trackball7AnimateEj.exit

6:                                                ; preds = %2
  %7 = icmp eq i32 %1, 0
  br i1 %7, label %8, label %12

8:                                                ; preds = %6
  %9 = tail call i64 @clock() #27
  %10 = sdiv i64 %9, 1000
  %11 = trunc i64 %10 to i32
  br label %12

12:                                               ; preds = %6, %8
  %.05.i = phi i32 [ %11, %8 ], [ %1, %6 ]
  %13 = getelementptr inbounds i8, ptr %0, i64 544
  %14 = load i32, ptr %13, align 8
  store i32 %.05.i, ptr %13, align 8
  %15 = getelementptr inbounds i8, ptr %0, i64 344
  %16 = load ptr, ptr %15, align 8
  %17 = icmp eq ptr %16, null
  br i1 %17, label %_ZN3vcg9Trackball7AnimateEj.exit, label %18

18:                                               ; preds = %12
  %19 = sub i32 %.05.i, %14
  %20 = load ptr, ptr %16, align 8
  %21 = getelementptr inbounds i8, ptr %20, i64 88
  %22 = load ptr, ptr %21, align 8
  tail call void %22(ptr noundef nonnull align 8 dereferenceable(8) %16, i32 noundef %19, ptr noundef nonnull %0)
  br label %_ZN3vcg9Trackball7AnimateEj.exit

_ZN3vcg9Trackball7AnimateEj.exit:                 ; preds = %18, %12, %2
  ret void
}